target datalayout = "e-m:e-p270:32:32-p271:32:32-p272:64:64-i64:64-i128:128-f80:128-n8:16:32:64-S128"
target triple = "x86_64-pc-linux-gnu"

%struct.H5C_class_t = type { i32, ptr, i32, i32, ptr, ptr, ptr, ptr, ptr, ptr, ptr, ptr, ptr, ptr }
%struct.H5SM_master_table_t = type { %struct.H5C_cache_entry_t, i64, i32, ptr }
%struct.H5C_cache_entry_t = type { ptr, i64, i64, ptr, i8, ptr, i8, i8, i8, i8, i32, i8, i8, i8, i8, i8, i32, ptr, i32, i32, i32, i32, i32, i8, i8, ptr, ptr, ptr, ptr, ptr, ptr, i8, i32, i8, i64, ptr, i64, i64, i32, i8, i32, i32, i8, ptr, ptr, ptr }
%struct.H5SM_index_header_t = type { i32, i64, i64, i64, i64, i32, i64, i64, i64 }
%struct.H5SM_table_cache_ud_t = type { ptr }

@H5SM_init_g = global i8 0, align 1
@H5_libterm_g = external global i8, align 1
@.str.4 = private unnamed_addr constant [98 x i8] c"generated/home/dtcxzyw/WorkSpace/Projects/compilers/llvm-opt-benchmark/bench/hdf5/hdf5/src/H5SM.c\00", align 1
@H5E_SOHM_g = external global i64, align 8
@H5E_CANTGET_g = external global i64, align 8
@H5AC_SOHM_TABLE = external constant [1 x %struct.H5C_class_t], align 16
@.str.20 = private unnamed_addr constant [31 x i8] c"can't map message type to flag\00", align 1
@__func__.H5SM_type_shared = private unnamed_addr constant [17 x i8] c"H5SM_type_shared\00", align 1
@H5E_CANTPROTECT_g = external global i64, align 8
@.str.21 = private unnamed_addr constant [33 x i8] c"unable to load SOHM master table\00", align 1
@H5E_CANTUNPROTECT_g = external global i64, align 8
@.str.22 = private unnamed_addr constant [34 x i8] c"unable to close SOHM master table\00", align 1
@H5E_BADTYPE_g = external global i64, align 8
@__func__.H5SM__type_to_flag = private unnamed_addr constant [19 x i8] c"H5SM__type_to_flag\00", align 1
@.str.90 = private unnamed_addr constant [24 x i8] c"unknown message type ID\00", align 1

; Function Attrs: nounwind uwtable
define internal i32 @H5SM__type_to_flag(i32 noundef %0, ptr noundef %1) #0 {
  %3 = alloca i32, align 4
  %4 = alloca ptr, align 8
  %5 = alloca i32, align 4
  %6 = alloca i8, align 1
  store i32 %0, ptr %3, align 4, !tbaa !14
  store ptr %1, ptr %4, align 8, !tbaa !52
  call void @llvm.lifetime.start.p0(i64 4, ptr %5) #8
  store i32 0, ptr %5, align 4, !tbaa !14
  call void @llvm.lifetime.start.p0(i64 1, ptr %6) #8
  store i8 0, ptr %6, align 1, !tbaa !18
  %7 = load i8, ptr @H5SM_init_g, align 1, !tbaa !18, !range !20, !noundef !21
  %8 = trunc i8 %7 to i1
  br i1 %8, label %13, label %9

9:                                                ; preds = %2
  %10 = load i8, ptr @H5_libterm_g, align 1, !tbaa !18, !range !20, !noundef !21
  %11 = trunc i8 %10 to i1
  %12 = xor i1 %11, true
  br label %13

13:                                               ; preds = %9, %2
  %14 = phi i1 [ true, %2 ], [ %12, %9 ]
  %15 = xor i1 %14, true
  %16 = xor i1 %15, true
  %17 = zext i1 %16 to i32
  %18 = sext i32 %17 to i64
  %19 = call i64 @llvm.expect.i64(i64 %18, i64 1)
  %20 = icmp ne i64 %19, 0
  br i1 %20, label %21, label %49

21:                                               ; preds = %13
  %22 = load i32, ptr %3, align 4, !tbaa !14
  switch i32 %22, label %28 [
    i32 4, label %23
    i32 1, label %24
    i32 3, label %24
    i32 5, label %24
    i32 11, label %24
    i32 12, label %24
  ]

23:                                               ; preds = %21
  store i32 5, ptr %3, align 4, !tbaa !14
  br label %24

24:                                               ; preds = %21, %21, %21, %21, %21, %23
  %25 = load i32, ptr %3, align 4, !tbaa !14
  %26 = shl i32 1, %25
  %27 = load ptr, ptr %4, align 8, !tbaa !52
  store i32 %26, ptr %27, align 4, !tbaa !14
  br label %47

28:                                               ; preds = %21
  br label %29

29:                                               ; preds = %28
  br label %30

30:                                               ; preds = %29
  br label %31

31:                                               ; preds = %30
  %32 = load i64, ptr @H5E_SOHM_g, align 8, !tbaa !16
  %33 = load i64, ptr @H5E_BADTYPE_g, align 8, !tbaa !16
  %34 = call i32 (ptr, ptr, i32, i64, i64, ptr, ...) @H5E_printf_stack(ptr noundef @.str.4, ptr noundef @__func__.H5SM__type_to_flag, i32 noundef 281, i64 noundef %32, i64 noundef %33, ptr noundef @.str.90)
  br label %35

35:                                               ; preds = %31
  br label %36

36:                                               ; preds = %35
  store i8 1, ptr %6, align 1, !tbaa !18
  %37 = load i8, ptr %6, align 1, !tbaa !18, !range !20, !noundef !21
  %38 = trunc i8 %37 to i1
  %39 = zext i1 %38 to i8
  store i8 %39, ptr %6, align 1, !tbaa !18
  br label %40

40:                                               ; preds = %36
  br label %41

41:                                               ; preds = %40
  br label %42

42:                                               ; preds = %41
  store i32 -1, ptr %5, align 4, !tbaa !14
  br label %48

43:                                               ; No predecessors!
  br label %44

44:                                               ; preds = %43
  br label %45

45:                                               ; preds = %44
  br label %46

46:                                               ; preds = %45
  br label %47

47:                                               ; preds = %46, %24
  br label %48

48:                                               ; preds = %47, %42
  br label %49

49:                                               ; preds = %48, %13
  %50 = load i32, ptr %5, align 4, !tbaa !14
  call void @llvm.lifetime.end.p0(i64 1, ptr %6) #8
  call void @llvm.lifetime.end.p0(i64 4, ptr %5) #8
  ret i32 %50
}

; Function Attrs: nounwind uwtable
define i32 @H5SM_type_shared(ptr noundef %0, i32 noundef %1) #0 {
  %3 = alloca i32, align 4
  %4 = alloca ptr, align 8
  %5 = alloca i32, align 4
  %6 = alloca ptr, align 8
  %7 = alloca i32, align 4
  %8 = alloca i64, align 8
  %9 = alloca i32, align 4
  %10 = alloca i64, align 8
  %11 = alloca i8, align 1
  %12 = alloca %struct.H5SM_table_cache_ud_t, align 8
  %13 = alloca i32, align 4
  store ptr %0, ptr %4, align 8, !tbaa !3
  store i32 %1, ptr %5, align 4, !tbaa !14
  call void @llvm.lifetime.start.p0(i64 8, ptr %6) #8
  store ptr null, ptr %6, align 8, !tbaa !12
  call void @llvm.lifetime.start.p0(i64 4, ptr %7) #8
  call void @llvm.lifetime.start.p0(i64 8, ptr %8) #8
  call void @llvm.lifetime.start.p0(i64 4, ptr %9) #8
  store i32 0, ptr %9, align 4, !tbaa !14
  call void @llvm.lifetime.start.p0(i64 8, ptr %10) #8
  store i64 -1, ptr %10, align 8, !tbaa !16
  call void @llvm.lifetime.start.p0(i64 1, ptr %11) #8
  store i8 0, ptr %11, align 1, !tbaa !18
  call void @H5AC_tag(i64 noundef 5, ptr noundef %10)
  %14 = load i8, ptr @H5SM_init_g, align 1, !tbaa !18, !range !20, !noundef !21
  %15 = trunc i8 %14 to i1
  br i1 %15, label %20, label %16

16:                                               ; preds = %2
  %17 = load i8, ptr @H5_libterm_g, align 1, !tbaa !18, !range !20, !noundef !21
  %18 = trunc i8 %17 to i1
  %19 = xor i1 %18, true
  br label %20

20:                                               ; preds = %16, %2
  %21 = phi i1 [ true, %2 ], [ %19, %16 ]
  %22 = xor i1 %21, true
  %23 = xor i1 %22, true
  %24 = zext i1 %23 to i32
  %25 = sext i32 %24 to i64
  %26 = call i64 @llvm.expect.i64(i64 %25, i64 1)
  %27 = icmp ne i64 %26, 0
  br i1 %27, label %28, label %145

28:                                               ; preds = %20
  %29 = load i32, ptr %5, align 4, !tbaa !14
  %30 = call i32 @H5SM__type_to_flag(i32 noundef %29, ptr noundef %7)
  %31 = icmp slt i32 %30, 0
  br i1 %31, label %32, label %51

32:                                               ; preds = %28
  br label %33

33:                                               ; preds = %32
  br label %34

34:                                               ; preds = %33
  br label %35

35:                                               ; preds = %34
  %36 = load i64, ptr @H5E_SOHM_g, align 8, !tbaa !16
  %37 = load i64, ptr @H5E_CANTGET_g, align 8, !tbaa !16
  %38 = call i32 (ptr, ptr, i32, i64, i64, ptr, ...) @H5E_printf_stack(ptr noundef @.str.4, ptr noundef @__func__.H5SM_type_shared, i32 noundef 351, i64 noundef %36, i64 noundef %37, ptr noundef @.str.20)
  br label %39

39:                                               ; preds = %35
  br label %40

40:                                               ; preds = %39
  store i8 1, ptr %11, align 1, !tbaa !18
  %41 = load i8, ptr %11, align 1, !tbaa !18, !range !20, !noundef !21
  %42 = trunc i8 %41 to i1
  %43 = zext i1 %42 to i8
  store i8 %43, ptr %11, align 1, !tbaa !18
  br label %44

44:                                               ; preds = %40
  br label %45

45:                                               ; preds = %44
  br label %46

46:                                               ; preds = %45
  store i32 -1, ptr %9, align 4, !tbaa !14
  br label %118

47:                                               ; No predecessors!
  br label %48

48:                                               ; preds = %47
  br label %49

49:                                               ; preds = %48
  br label %50

50:                                               ; preds = %49
  br label %51

51:                                               ; preds = %50, %28
  %52 = load ptr, ptr %4, align 8, !tbaa !3
  %53 = call i64 @H5F_get_sohm_addr(ptr noundef %52)
  %54 = icmp ne i64 %53, -1
  br i1 %54, label %55, label %86

55:                                               ; preds = %51
  call void @llvm.lifetime.start.p0(i64 8, ptr %12) #8
  %56 = load ptr, ptr %4, align 8, !tbaa !3
  %57 = getelementptr inbounds nuw %struct.H5SM_table_cache_ud_t, ptr %12, i32 0, i32 0
  store ptr %56, ptr %57, align 8, !tbaa !54
  %58 = load ptr, ptr %4, align 8, !tbaa !3
  %59 = load ptr, ptr %4, align 8, !tbaa !3
  %60 = call i64 @H5F_get_sohm_addr(ptr noundef %59)
  %61 = call ptr @H5AC_protect(ptr noundef %58, ptr noundef @H5AC_SOHM_TABLE, i64 noundef %60, ptr noundef %12, i32 noundef 128)
  store ptr %61, ptr %6, align 8, !tbaa !12
  %62 = icmp eq ptr null, %61
  br i1 %62, label %63, label %82

63:                                               ; preds = %55
  br label %64

64:                                               ; preds = %63
  br label %65

65:                                               ; preds = %64
  br label %66

66:                                               ; preds = %65
  %67 = load i64, ptr @H5E_SOHM_g, align 8, !tbaa !16
  %68 = load i64, ptr @H5E_CANTPROTECT_g, align 8, !tbaa !16
  %69 = call i32 (ptr, ptr, i32, i64, i64, ptr, ...) @H5E_printf_stack(ptr noundef @.str.4, ptr noundef @__func__.H5SM_type_shared, i32 noundef 362, i64 noundef %67, i64 noundef %68, ptr noundef @.str.21)
  br label %70

70:                                               ; preds = %66
  br label %71

71:                                               ; preds = %70
  store i8 1, ptr %11, align 1, !tbaa !18
  %72 = load i8, ptr %11, align 1, !tbaa !18, !range !20, !noundef !21
  %73 = trunc i8 %72 to i1
  %74 = zext i1 %73 to i8
  store i8 %74, ptr %11, align 1, !tbaa !18
  br label %75

75:                                               ; preds = %71
  br label %76

76:                                               ; preds = %75
  br label %77

77:                                               ; preds = %76
  store i32 -1, ptr %9, align 4, !tbaa !14
  store i32 10, ptr %13, align 4
  br label %83

78:                                               ; No predecessors!
  br label %79

79:                                               ; preds = %78
  br label %80

80:                                               ; preds = %79
  br label %81

81:                                               ; preds = %80
  br label %82

82:                                               ; preds = %81, %55
  store i32 0, ptr %13, align 4
  br label %83

83:                                               ; preds = %77, %82
  call void @llvm.lifetime.end.p0(i64 8, ptr %12) #8
  %84 = load i32, ptr %13, align 4
  switch i32 %84, label %148 [
    i32 0, label %85
    i32 10, label %118
  ]

85:                                               ; preds = %83
  br label %90

86:                                               ; preds = %51
  br label %87

87:                                               ; preds = %86
  store i32 0, ptr %9, align 4, !tbaa !14
  br label %118

88:                                               ; No predecessors!
  br label %89

89:                                               ; preds = %88
  br label %90

90:                                               ; preds = %89, %85
  store i64 0, ptr %8, align 8, !tbaa !16
  br label %91

91:                                               ; preds = %114, %90
  %92 = load i64, ptr %8, align 8, !tbaa !16
  %93 = load ptr, ptr %6, align 8, !tbaa !12
  %94 = getelementptr inbounds nuw %struct.H5SM_master_table_t, ptr %93, i32 0, i32 2
  %95 = load i32, ptr %94, align 8, !tbaa !22
  %96 = zext i32 %95 to i64
  %97 = icmp ult i64 %92, %96
  br i1 %97, label %98, label %117

98:                                               ; preds = %91
  %99 = load ptr, ptr %6, align 8, !tbaa !12
  %100 = getelementptr inbounds nuw %struct.H5SM_master_table_t, ptr %99, i32 0, i32 3
  %101 = load ptr, ptr %100, align 8, !tbaa !34
  %102 = load i64, ptr %8, align 8, !tbaa !16
  %103 = getelementptr inbounds nuw %struct.H5SM_index_header_t, ptr %101, i64 %102
  %104 = getelementptr inbounds nuw %struct.H5SM_index_header_t, ptr %103, i32 0, i32 0
  %105 = load i32, ptr %104, align 8, !tbaa !38
  %106 = load i32, ptr %7, align 4, !tbaa !14
  %107 = and i32 %105, %106
  %108 = icmp ne i32 %107, 0
  br i1 %108, label %109, label %113

109:                                              ; preds = %98
  br label %110

110:                                              ; preds = %109
  store i32 1, ptr %9, align 4, !tbaa !14
  br label %118

111:                                              ; No predecessors!
  br label %112

112:                                              ; preds = %111
  br label %113

113:                                              ; preds = %112, %98
  br label %114

114:                                              ; preds = %113
  %115 = load i64, ptr %8, align 8, !tbaa !16
  %116 = add i64 %115, 1
  store i64 %116, ptr %8, align 8, !tbaa !16
  br label %91, !llvm.loop !56

117:                                              ; preds = %91
  br label %118

118:                                              ; preds = %117, %83, %110, %87, %46
  %119 = load ptr, ptr %6, align 8, !tbaa !12
  %120 = icmp ne ptr %119, null
  br i1 %120, label %121, label %144

121:                                              ; preds = %118
  %122 = load ptr, ptr %4, align 8, !tbaa !3
  %123 = load ptr, ptr %4, align 8, !tbaa !3
  %124 = call i64 @H5F_get_sohm_addr(ptr noundef %123)
  %125 = load ptr, ptr %6, align 8, !tbaa !12
  %126 = call i32 @H5AC_unprotect(ptr noundef %122, ptr noundef @H5AC_SOHM_TABLE, i64 noundef %124, ptr noundef %125, i32 noundef 0)
  %127 = icmp slt i32 %126, 0
  br i1 %127, label %128, label %144

128:                                              ; preds = %121
  br label %129

129:                                              ; preds = %128
  br label %130

130:                                              ; preds = %129
  br label %131

131:                                              ; preds = %130
  %132 = load i64, ptr @H5E_SOHM_g, align 8, !tbaa !16
  %133 = load i64, ptr @H5E_CANTUNPROTECT_g, align 8, !tbaa !16
  %134 = call i32 (ptr, ptr, i32, i64, i64, ptr, ...) @H5E_printf_stack(ptr noundef @.str.4, ptr noundef @__func__.H5SM_type_shared, i32 noundef 378, i64 noundef %132, i64 noundef %133, ptr noundef @.str.22)
  br label %135

135:                                              ; preds = %131
  br label %136

136:                                              ; preds = %135
  store i8 1, ptr %11, align 1, !tbaa !18
  %137 = load i8, ptr %11, align 1, !tbaa !18, !range !20, !noundef !21
  %138 = trunc i8 %137 to i1
  %139 = zext i1 %138 to i8
  store i8 %139, ptr %11, align 1, !tbaa !18
  br label %140

140:                                              ; preds = %136
  br label %141

141:                                              ; preds = %140
  store i32 -1, ptr %9, align 4, !tbaa !14
  br label %142

142:                                              ; preds = %141
  br label %143

143:                                              ; preds = %142
  br label %144

144:                                              ; preds = %143, %121, %118
  br label %145

145:                                              ; preds = %144, %20
  %146 = load i64, ptr %10, align 8, !tbaa !16
  call void @H5AC_tag(i64 noundef %146, ptr noundef null)
  %147 = load i32, ptr %9, align 4, !tbaa !14
  store i32 %147, ptr %3, align 4
  store i32 1, ptr %13, align 4
  br label %148

148:                                              ; preds = %145, %83
  call void @llvm.lifetime.end.p0(i64 1, ptr %11) #8
  call void @llvm.lifetime.end.p0(i64 8, ptr %10) #8
  call void @llvm.lifetime.end.p0(i64 4, ptr %9) #8
  call void @llvm.lifetime.end.p0(i64 8, ptr %8) #8
  call void @llvm.lifetime.end.p0(i64 4, ptr %7) #8
  call void @llvm.lifetime.end.p0(i64 8, ptr %6) #8
  %149 = load i32, ptr %3, align 4
  ret i32 %149
}