; Function Attrs: nounwind uwtable
define range(i32 -1, 2) i32 @H5SM_type_shared(ptr noundef %0, i32 noundef %1) local_unnamed_addr #0 {
  %3 = alloca i64, align 8
  %4 = alloca %struct.H5SM_table_cache_ud_t, align 8
  call void @llvm.lifetime.start.p0(i64 8, ptr nonnull %3) #11
  store i64 -1, ptr %3, align 8, !tbaa !7
  call void @H5AC_tag(i64 noundef 5, ptr noundef nonnull %3) #11
  %5 = load i8, ptr @H5SM_init_g, align 1, !tbaa !9, !range !11, !noundef !12
  %6 = trunc nuw i8 %5 to i1
  %7 = load i8, ptr @H5_libterm_g, align 1, !range !11
  %8 = trunc nuw i8 %7 to i1
  %9 = xor i1 %8, true
  %10 = select i1 %6, i1 true, i1 %9
  br i1 %10, label %11, label %.thread30, !prof !13

11:                                               ; preds = %2
  %switch.tableidx = add i32 %1, -1
  %12 = icmp ult i32 %switch.tableidx, 12
  br i1 %12, label %switch.hole_check, label %13

13:                                               ; preds = %switch.hole_check, %11
  %14 = load i64, ptr @H5E_SOHM_g, align 8, !tbaa !7
  %15 = load i64, ptr @H5E_BADTYPE_g, align 8, !tbaa !7
  %16 = call i32 (ptr, ptr, i32, i64, i64, ptr, ...) @H5E_printf_stack(ptr noundef nonnull @.str.4, ptr noundef nonnull @__func__.H5SM__type_to_flag, i32 noundef 281, i64 noundef %14, i64 noundef %15, ptr noundef nonnull @.str.90) #11
  %17 = load i64, ptr @H5E_SOHM_g, align 8, !tbaa !7
  %18 = load i64, ptr @H5E_CANTGET_g, align 8, !tbaa !7
  %19 = call i32 (ptr, ptr, i32, i64, i64, ptr, ...) @H5E_printf_stack(ptr noundef nonnull @.str.4, ptr noundef nonnull @__func__.H5SM_type_shared, i32 noundef 351, i64 noundef %17, i64 noundef %18, ptr noundef nonnull @.str.20) #11
  br label %.thread30

switch.hole_check:                                ; preds = %11
  %switch.maskindex = trunc nuw i32 %switch.tableidx to i16
  %switch.shifted = lshr i16 3101, %switch.maskindex
  %switch.lobit = trunc i16 %switch.shifted to i1
  br i1 %switch.lobit, label %switch.lookup, label %13

switch.lookup:                                    ; preds = %switch.hole_check
  %20 = zext nneg i32 %switch.tableidx to i64
  %switch.gep = getelementptr inbounds nuw [12 x i32], ptr @switch.table.H5SM_get_refcount, i64 0, i64 %20
  %switch.load = load i32, ptr %switch.gep, align 4
  %21 = shl nuw nsw i32 1, %switch.load
  %22 = call i64 @H5F_get_sohm_addr(ptr noundef %0) #11
  %.not = icmp eq i64 %22, -1
  br i1 %.not, label %.thread30, label %23

23:                                               ; preds = %switch.lookup
  call void @llvm.lifetime.start.p0(i64 8, ptr nonnull %4) #11
  store ptr %0, ptr %4, align 8, !tbaa !43
  %24 = call i64 @H5F_get_sohm_addr(ptr noundef %0) #11
  %25 = call ptr @H5AC_protect(ptr noundef %0, ptr noundef nonnull @H5AC_SOHM_TABLE, i64 noundef %24, ptr noundef nonnull %4, i32 noundef 128) #11
  %26 = icmp eq ptr %25, null
  br i1 %26, label %.thread, label %30

.thread:                                          ; preds = %23
  %27 = load i64, ptr @H5E_SOHM_g, align 8, !tbaa !7
  %28 = load i64, ptr @H5E_CANTPROTECT_g, align 8, !tbaa !7
  %29 = call i32 (ptr, ptr, i32, i64, i64, ptr, ...) @H5E_printf_stack(ptr noundef nonnull @.str.4, ptr noundef nonnull @__func__.H5SM_type_shared, i32 noundef 362, i64 noundef %27, i64 noundef %28, ptr noundef nonnull @.str.21) #11
  call void @llvm.lifetime.end.p0(i64 8, ptr nonnull %4) #11
  br label %.thread30

30:                                               ; preds = %23
  call void @llvm.lifetime.end.p0(i64 8, ptr nonnull %4) #11
  %31 = getelementptr inbounds nuw i8, ptr %25, i64 256
  %32 = load i32, ptr %31, align 8, !tbaa !15
  %33 = zext i32 %32 to i64
  %.not37 = icmp eq i32 %32, 0
  br i1 %.not37, label %._crit_edge, label %.lr.ph

.lr.ph:                                           ; preds = %30
  %34 = getelementptr inbounds nuw i8, ptr %25, i64 264
  %35 = load ptr, ptr %34, align 8, !tbaa !28
  br label %38

36:                                               ; preds = %38
  %37 = add nuw nsw i64 %.02034, 1
  %exitcond.not = icmp eq i64 %37, %33
  br i1 %exitcond.not, label %._crit_edge, label %38, !llvm.loop !46

38:                                               ; preds = %.lr.ph, %36
  %.02034 = phi i64 [ 0, %.lr.ph ], [ %37, %36 ]
  %39 = getelementptr inbounds nuw %struct.H5SM_index_header_t, ptr %35, i64 %.02034
  %40 = load i32, ptr %39, align 8, !tbaa !32
  %41 = and i32 %40, %21
  %.not23 = icmp eq i32 %41, 0
  br i1 %.not23, label %36, label %._crit_edge

._crit_edge:                                      ; preds = %38, %36, %30
  %.1 = phi i32 [ 0, %30 ], [ 0, %36 ], [ 1, %38 ]
  %42 = call i64 @H5F_get_sohm_addr(ptr noundef %0) #11
  %43 = call i32 @H5AC_unprotect(ptr noundef %0, ptr noundef nonnull @H5AC_SOHM_TABLE, i64 noundef %42, ptr noundef nonnull %25, i32 noundef 0) #11
  %44 = icmp slt i32 %43, 0
  br i1 %44, label %45, label %.thread30

45:                                               ; preds = %._crit_edge
  %46 = load i64, ptr @H5E_SOHM_g, align 8, !tbaa !7
  %47 = load i64, ptr @H5E_CANTUNPROTECT_g, align 8, !tbaa !7
  %48 = call i32 (ptr, ptr, i32, i64, i64, ptr, ...) @H5E_printf_stack(ptr noundef nonnull @.str.4, ptr noundef nonnull @__func__.H5SM_type_shared, i32 noundef 378, i64 noundef %46, i64 noundef %47, ptr noundef nonnull @.str.22) #11
  br label %.thread30

.thread30:                                        ; preds = %.thread, %switch.lookup, %13, %2, %45, %._crit_edge
  %.019 = phi i32 [ -1, %45 ], [ %.1, %._crit_edge ], [ 0, %2 ], [ -1, %.thread ], [ 0, %switch.lookup ], [ -1, %13 ]
  %49 = load i64, ptr %3, align 8, !tbaa !7
  call void @H5AC_tag(i64 noundef %49, ptr noundef null) #11
  call void @llvm.lifetime.end.p0(i64 8, ptr nonnull %3) #11
  ret i32 %.019
}